target datalayout = "e-m:e-p270:32:32-p271:32:32-p272:64:64-i64:64-i128:128-f80:128-n8:16:32:64-S128"
target triple = "x86_64-pc-linux-gnu"

; Function Attrs: nounwind uwtable
define hidden i32 @mbedtls_asn1_write_tag(ptr noundef %0, ptr noundef %1, i8 noundef zeroext %2) #0 {
  %4 = alloca i32, align 4
  %5 = alloca ptr, align 8
  %6 = alloca ptr, align 8
  %7 = alloca i8, align 1
  store ptr %0, ptr %5, align 8, !tbaa !3
  store ptr %1, ptr %6, align 8, !tbaa !9
  store i8 %2, ptr %7, align 1, !tbaa !17
  %8 = load ptr, ptr %5, align 8, !tbaa !3
  %9 = load ptr, ptr %8, align 8, !tbaa !9
  %10 = load ptr, ptr %6, align 8, !tbaa !9
  %11 = ptrtoint ptr %9 to i64
  %12 = ptrtoint ptr %10 to i64
  %13 = sub i64 %11, %12
  %14 = icmp slt i64 %13, 1
  br i1 %14, label %15, label %16

15:                                               ; preds = %3
  store i32 -108, ptr %4, align 4
  br label %21

16:                                               ; preds = %3
  %17 = load i8, ptr %7, align 1, !tbaa !17
  %18 = load ptr, ptr %5, align 8, !tbaa !3
  %19 = load ptr, ptr %18, align 8, !tbaa !9
  %20 = getelementptr inbounds i8, ptr %19, i32 -1
  store ptr %20, ptr %18, align 8, !tbaa !9
  store i8 %17, ptr %20, align 1, !tbaa !17
  store i32 1, ptr %4, align 4
  br label %21

21:                                               ; preds = %16, %15
  %22 = load i32, ptr %4, align 4
  ret i32 %22
}

; Function Attrs: nounwind uwtable
define hidden i32 @mbedtls_asn1_write_len(ptr noundef %0, ptr noundef %1, i64 noundef %2) #0 {
  %4 = alloca i32, align 4
  %5 = alloca ptr, align 8
  %6 = alloca ptr, align 8
  %7 = alloca i64, align 8
  %8 = alloca i32, align 4
  %9 = alloca i64, align 8
  %10 = alloca i32, align 4
  store ptr %0, ptr %5, align 8, !tbaa !3
  store ptr %1, ptr %6, align 8, !tbaa !9
  store i64 %2, ptr %7, align 8, !tbaa !11
  %11 = load i64, ptr %7, align 8, !tbaa !11
  %12 = icmp ugt i64 %11, 4294967295
  br i1 %12, label %13, label %14

13:                                               ; preds = %3
  store i32 -100, ptr %4, align 4
  br label %68

14:                                               ; preds = %3
  call void @llvm.lifetime.start.p0(i64 4, ptr %8) #6
  store i32 1, ptr %8, align 4, !tbaa !13
  %15 = load i64, ptr %7, align 8, !tbaa !11
  %16 = icmp uge i64 %15, 128
  br i1 %16, label %17, label %30

17:                                               ; preds = %14
  call void @llvm.lifetime.start.p0(i64 8, ptr %9) #6
  %18 = load i64, ptr %7, align 8, !tbaa !11
  store i64 %18, ptr %9, align 8, !tbaa !11
  br label %19

19:                                               ; preds = %26, %17
  %20 = load i64, ptr %9, align 8, !tbaa !11
  %21 = icmp ne i64 %20, 0
  br i1 %21, label %23, label %22

22:                                               ; preds = %19
  call void @llvm.lifetime.end.p0(i64 8, ptr %9) #6
  br label %29

23:                                               ; preds = %19
  %24 = load i32, ptr %8, align 4, !tbaa !13
  %25 = add nsw i32 %24, 1
  store i32 %25, ptr %8, align 4, !tbaa !13
  br label %26

26:                                               ; preds = %23
  %27 = load i64, ptr %9, align 8, !tbaa !11
  %28 = lshr i64 %27, 8
  store i64 %28, ptr %9, align 8, !tbaa !11
  br label %19, !llvm.loop !15

29:                                               ; preds = %22
  br label %30

30:                                               ; preds = %29, %14
  %31 = load i32, ptr %8, align 4, !tbaa !13
  %32 = sext i32 %31 to i64
  %33 = load ptr, ptr %5, align 8, !tbaa !3
  %34 = load ptr, ptr %33, align 8, !tbaa !9
  %35 = load ptr, ptr %6, align 8, !tbaa !9
  %36 = ptrtoint ptr %34 to i64
  %37 = ptrtoint ptr %35 to i64
  %38 = sub i64 %36, %37
  %39 = icmp sgt i64 %32, %38
  br i1 %39, label %40, label %41

40:                                               ; preds = %30
  store i32 -108, ptr %4, align 4
  store i32 1, ptr %10, align 4
  br label %67

41:                                               ; preds = %30
  br label %42

42:                                               ; preds = %51, %41
  %43 = load i64, ptr %7, align 8, !tbaa !11
  %44 = and i64 %43, 255
  %45 = trunc i64 %44 to i8
  %46 = load ptr, ptr %5, align 8, !tbaa !3
  %47 = load ptr, ptr %46, align 8, !tbaa !9
  %48 = getelementptr inbounds i8, ptr %47, i32 -1
  store ptr %48, ptr %46, align 8, !tbaa !9
  store i8 %45, ptr %48, align 1, !tbaa !17
  %49 = load i64, ptr %7, align 8, !tbaa !11
  %50 = lshr i64 %49, 8
  store i64 %50, ptr %7, align 8, !tbaa !11
  br label %51

51:                                               ; preds = %42
  %52 = load i64, ptr %7, align 8, !tbaa !11
  %53 = icmp ne i64 %52, 0
  br i1 %53, label %42, label %54, !llvm.loop !18

54:                                               ; preds = %51
  %55 = load i32, ptr %8, align 4, !tbaa !13
  %56 = icmp sgt i32 %55, 1
  br i1 %56, label %57, label %65

57:                                               ; preds = %54
  %58 = load i32, ptr %8, align 4, !tbaa !13
  %59 = add nsw i32 128, %58
  %60 = sub nsw i32 %59, 1
  %61 = trunc i32 %60 to i8
  %62 = load ptr, ptr %5, align 8, !tbaa !3
  %63 = load ptr, ptr %62, align 8, !tbaa !9
  %64 = getelementptr inbounds i8, ptr %63, i32 -1
  store ptr %64, ptr %62, align 8, !tbaa !9
  store i8 %61, ptr %64, align 1, !tbaa !17
  br label %65

65:                                               ; preds = %57, %54
  %66 = load i32, ptr %8, align 4, !tbaa !13
  store i32 %66, ptr %4, align 4
  store i32 1, ptr %10, align 4
  br label %67

67:                                               ; preds = %65, %40
  call void @llvm.lifetime.end.p0(i64 4, ptr %8) #6
  br label %68

68:                                               ; preds = %67, %13
  %69 = load i32, ptr %4, align 4
  ret i32 %69
}

; Function Attrs: nounwind uwtable
define hidden i32 @mbedtls_asn1_write_raw_buffer(ptr noundef %0, ptr noundef %1, ptr noundef %2, i64 noundef %3) #0 {
  %5 = alloca i32, align 4
  %6 = alloca ptr, align 8
  %7 = alloca ptr, align 8
  %8 = alloca ptr, align 8
  %9 = alloca i64, align 8
  %10 = alloca i64, align 8
  %11 = alloca i32, align 4
  store ptr %0, ptr %6, align 8, !tbaa !3
  store ptr %1, ptr %7, align 8, !tbaa !9
  store ptr %2, ptr %8, align 8, !tbaa !9
  store i64 %3, ptr %9, align 8, !tbaa !11
  call void @llvm.lifetime.start.p0(i64 8, ptr %10) #6
  store i64 0, ptr %10, align 8, !tbaa !11
  %12 = load ptr, ptr %6, align 8, !tbaa !3
  %13 = load ptr, ptr %12, align 8, !tbaa !9
  %14 = load ptr, ptr %7, align 8, !tbaa !9
  %15 = icmp ult ptr %13, %14
  br i1 %15, label %25, label %16

16:                                               ; preds = %4
  %17 = load ptr, ptr %6, align 8, !tbaa !3
  %18 = load ptr, ptr %17, align 8, !tbaa !9
  %19 = load ptr, ptr %7, align 8, !tbaa !9
  %20 = ptrtoint ptr %18 to i64
  %21 = ptrtoint ptr %19 to i64
  %22 = sub i64 %20, %21
  %23 = load i64, ptr %9, align 8, !tbaa !11
  %24 = icmp ult i64 %22, %23
  br i1 %24, label %25, label %26

25:                                               ; preds = %16, %4
  store i32 -108, ptr %5, align 4
  store i32 1, ptr %11, align 4
  br label %39

26:                                               ; preds = %16
  %27 = load i64, ptr %9, align 8, !tbaa !11
  store i64 %27, ptr %10, align 8, !tbaa !11
  %28 = load i64, ptr %10, align 8, !tbaa !11
  %29 = load ptr, ptr %6, align 8, !tbaa !3
  %30 = load ptr, ptr %29, align 8, !tbaa !9
  %31 = sub i64 0, %28
  %32 = getelementptr inbounds i8, ptr %30, i64 %31
  store ptr %32, ptr %29, align 8, !tbaa !9
  %33 = load ptr, ptr %6, align 8, !tbaa !3
  %34 = load ptr, ptr %33, align 8, !tbaa !9
  %35 = load ptr, ptr %8, align 8, !tbaa !9
  %36 = load i64, ptr %10, align 8, !tbaa !11
  call void @llvm.memcpy.p0.p0.i64(ptr align 1 %34, ptr align 1 %35, i64 %36, i1 false)
  %37 = load i64, ptr %10, align 8, !tbaa !11
  %38 = trunc i64 %37 to i32
  store i32 %38, ptr %5, align 4
  store i32 1, ptr %11, align 4
  br label %39

39:                                               ; preds = %26, %25
  call void @llvm.lifetime.end.p0(i64 8, ptr %10) #6
  %40 = load i32, ptr %5, align 4
  ret i32 %40
}

; Function Attrs: nounwind uwtable
define internal i32 @mbedtls_asn1_write_len_and_tag(ptr noundef %0, ptr noundef %1, i64 noundef %2, i8 noundef zeroext %3) #0 {
  %5 = alloca i32, align 4
  %6 = alloca ptr, align 8
  %7 = alloca ptr, align 8
  %8 = alloca i64, align 8
  %9 = alloca i8, align 1
  %10 = alloca i32, align 4
  %11 = alloca i32, align 4
  store ptr %0, ptr %6, align 8, !tbaa !3
  store ptr %1, ptr %7, align 8, !tbaa !9
  store i64 %2, ptr %8, align 8, !tbaa !11
  store i8 %3, ptr %9, align 1, !tbaa !17
  call void @llvm.lifetime.start.p0(i64 4, ptr %10) #6
  store i32 -110, ptr %10, align 4, !tbaa !13
  br label %12

12:                                               ; preds = %4
  %13 = load ptr, ptr %6, align 8, !tbaa !3
  %14 = load ptr, ptr %7, align 8, !tbaa !9
  %15 = load i64, ptr %8, align 8, !tbaa !11
  %16 = call i32 @mbedtls_asn1_write_len(ptr noundef %13, ptr noundef %14, i64 noundef %15)
  store i32 %16, ptr %10, align 4, !tbaa !13
  %17 = icmp slt i32 %16, 0
  br i1 %17, label %18, label %20

18:                                               ; preds = %12
  %19 = load i32, ptr %10, align 4, !tbaa !13
  store i32 %19, ptr %5, align 4
  store i32 1, ptr %11, align 4
  br label %46

20:                                               ; preds = %12
  %21 = load i32, ptr %10, align 4, !tbaa !13
  %22 = sext i32 %21 to i64
  %23 = load i64, ptr %8, align 8, !tbaa !11
  %24 = add i64 %23, %22
  store i64 %24, ptr %8, align 8, !tbaa !11
  br label %25

25:                                               ; preds = %20
  br label %26

26:                                               ; preds = %25
  br label %27

27:                                               ; preds = %26
  br label %28

28:                                               ; preds = %27
  %29 = load ptr, ptr %6, align 8, !tbaa !3
  %30 = load ptr, ptr %7, align 8, !tbaa !9
  %31 = load i8, ptr %9, align 1, !tbaa !17
  %32 = call i32 @mbedtls_asn1_write_tag(ptr noundef %29, ptr noundef %30, i8 noundef zeroext %31)
  store i32 %32, ptr %10, align 4, !tbaa !13
  %33 = icmp slt i32 %32, 0
  br i1 %33, label %34, label %36

34:                                               ; preds = %28
  %35 = load i32, ptr %10, align 4, !tbaa !13
  store i32 %35, ptr %5, align 4
  store i32 1, ptr %11, align 4
  br label %46

36:                                               ; preds = %28
  %37 = load i32, ptr %10, align 4, !tbaa !13
  %38 = sext i32 %37 to i64
  %39 = load i64, ptr %8, align 8, !tbaa !11
  %40 = add i64 %39, %38
  store i64 %40, ptr %8, align 8, !tbaa !11
  br label %41

41:                                               ; preds = %36
  br label %42

42:                                               ; preds = %41
  br label %43

43:                                               ; preds = %42
  %44 = load i64, ptr %8, align 8, !tbaa !11
  %45 = trunc i64 %44 to i32
  store i32 %45, ptr %5, align 4
  store i32 1, ptr %11, align 4
  br label %46

46:                                               ; preds = %43, %34, %18
  call void @llvm.lifetime.end.p0(i64 4, ptr %10) #6
  %47 = load i32, ptr %5, align 4
  ret i32 %47
}

; Function Attrs: nounwind uwtable
define hidden i32 @mbedtls_asn1_write_oid(ptr noundef %0, ptr noundef %1, ptr noundef %2, i64 noundef %3) #0 {
  %5 = alloca i32, align 4
  %6 = alloca ptr, align 8
  %7 = alloca ptr, align 8
  %8 = alloca ptr, align 8
  %9 = alloca i64, align 8
  %10 = alloca i32, align 4
  %11 = alloca i64, align 8
  %12 = alloca i32, align 4
  store ptr %0, ptr %6, align 8, !tbaa !3
  store ptr %1, ptr %7, align 8, !tbaa !9
  store ptr %2, ptr %8, align 8, !tbaa !9
  store i64 %3, ptr %9, align 8, !tbaa !11
  call void @llvm.lifetime.start.p0(i64 4, ptr %10) #6
  store i32 -110, ptr %10, align 4, !tbaa !13
  call void @llvm.lifetime.start.p0(i64 8, ptr %11) #6
  store i64 0, ptr %11, align 8, !tbaa !11
  br label %13

13:                                               ; preds = %4
  %14 = load ptr, ptr %6, align 8, !tbaa !3
  %15 = load ptr, ptr %7, align 8, !tbaa !9
  %16 = load ptr, ptr %8, align 8, !tbaa !9
  %17 = load i64, ptr %9, align 8, !tbaa !11
  %18 = call i32 @mbedtls_asn1_write_raw_buffer(ptr noundef %14, ptr noundef %15, ptr noundef %16, i64 noundef %17)
  store i32 %18, ptr %10, align 4, !tbaa !13
  %19 = icmp slt i32 %18, 0
  br i1 %19, label %20, label %22

20:                                               ; preds = %13
  %21 = load i32, ptr %10, align 4, !tbaa !13
  store i32 %21, ptr %5, align 4
  store i32 1, ptr %12, align 4
  br label %34

22:                                               ; preds = %13
  %23 = load i32, ptr %10, align 4, !tbaa !13
  %24 = sext i32 %23 to i64
  %25 = load i64, ptr %11, align 8, !tbaa !11
  %26 = add i64 %25, %24
  store i64 %26, ptr %11, align 8, !tbaa !11
  br label %27

27:                                               ; preds = %22
  br label %28

28:                                               ; preds = %27
  br label %29

29:                                               ; preds = %28
  %30 = load ptr, ptr %6, align 8, !tbaa !3
  %31 = load ptr, ptr %7, align 8, !tbaa !9
  %32 = load i64, ptr %11, align 8, !tbaa !11
  %33 = call i32 @mbedtls_asn1_write_len_and_tag(ptr noundef %30, ptr noundef %31, i64 noundef %32, i8 noundef zeroext 6)
  store i32 %33, ptr %5, align 4
  store i32 1, ptr %12, align 4
  br label %34

34:                                               ; preds = %29, %20
  call void @llvm.lifetime.end.p0(i64 8, ptr %11) #6
  call void @llvm.lifetime.end.p0(i64 4, ptr %10) #6
  %35 = load i32, ptr %5, align 4
  ret i32 %35
}

; Function Attrs: nounwind uwtable
define hidden i32 @mbedtls_asn1_write_null(ptr noundef %0, ptr noundef %1) #0 {
  %3 = alloca ptr, align 8
  %4 = alloca ptr, align 8
  store ptr %0, ptr %3, align 8, !tbaa !3
  store ptr %1, ptr %4, align 8, !tbaa !9
  %5 = load ptr, ptr %3, align 8, !tbaa !3
  %6 = load ptr, ptr %4, align 8, !tbaa !9
  %7 = call i32 @mbedtls_asn1_write_len_and_tag(ptr noundef %5, ptr noundef %6, i64 noundef 0, i8 noundef zeroext 5)
  ret i32 %7
}

; Function Attrs: nounwind uwtable
define hidden i32 @mbedtls_asn1_write_algorithm_identifier_ext(ptr noundef %0, ptr noundef %1, ptr noundef %2, i64 noundef %3, i64 noundef %4, i32 noundef %5) #0 {
  %7 = alloca i32, align 4
  %8 = alloca ptr, align 8
  %9 = alloca ptr, align 8
  %10 = alloca ptr, align 8
  %11 = alloca i64, align 8
  %12 = alloca i64, align 8
  %13 = alloca i32, align 4
  %14 = alloca i32, align 4
  %15 = alloca i64, align 8
  %16 = alloca i32, align 4
  store ptr %0, ptr %8, align 8, !tbaa !3
  store ptr %1, ptr %9, align 8, !tbaa !9
  store ptr %2, ptr %10, align 8, !tbaa !9
  store i64 %3, ptr %11, align 8, !tbaa !11
  store i64 %4, ptr %12, align 8, !tbaa !11
  store i32 %5, ptr %13, align 4, !tbaa !13
  call void @llvm.lifetime.start.p0(i64 4, ptr %14) #6
  store i32 -110, ptr %14, align 4, !tbaa !13
  call void @llvm.lifetime.start.p0(i64 8, ptr %15) #6
  store i64 0, ptr %15, align 8, !tbaa !11
  %17 = load i32, ptr %13, align 4, !tbaa !13
  %18 = icmp ne i32 %17, 0
  br i1 %18, label %19, label %43

19:                                               ; preds = %6
  %20 = load i64, ptr %12, align 8, !tbaa !11
  %21 = icmp eq i64 %20, 0
  br i1 %21, label %22, label %38

22:                                               ; preds = %19
  br label %23

23:                                               ; preds = %22
  %24 = load ptr, ptr %8, align 8, !tbaa !3
  %25 = load ptr, ptr %9, align 8, !tbaa !9
  %26 = call i32 @mbedtls_asn1_write_null(ptr noundef %24, ptr noundef %25)
  store i32 %26, ptr %14, align 4, !tbaa !13
  %27 = icmp slt i32 %26, 0
  br i1 %27, label %28, label %30

28:                                               ; preds = %23
  %29 = load i32, ptr %14, align 4, !tbaa !13
  store i32 %29, ptr %7, align 4
  store i32 1, ptr %16, align 4
  br label %65

30:                                               ; preds = %23
  %31 = load i32, ptr %14, align 4, !tbaa !13
  %32 = sext i32 %31 to i64
  %33 = load i64, ptr %15, align 8, !tbaa !11
  %34 = add i64 %33, %32
  store i64 %34, ptr %15, align 8, !tbaa !11
  br label %35

35:                                               ; preds = %30
  br label %36

36:                                               ; preds = %35
  br label %37

37:                                               ; preds = %36
  br label %42

38:                                               ; preds = %19
  %39 = load i64, ptr %12, align 8, !tbaa !11
  %40 = load i64, ptr %15, align 8, !tbaa !11
  %41 = add i64 %40, %39
  store i64 %41, ptr %15, align 8, !tbaa !11
  br label %42

42:                                               ; preds = %38, %37
  br label %43

43:                                               ; preds = %42, %6
  br label %44

44:                                               ; preds = %43
  %45 = load ptr, ptr %8, align 8, !tbaa !3
  %46 = load ptr, ptr %9, align 8, !tbaa !9
  %47 = load ptr, ptr %10, align 8, !tbaa !9
  %48 = load i64, ptr %11, align 8, !tbaa !11
  %49 = call i32 @mbedtls_asn1_write_oid(ptr noundef %45, ptr noundef %46, ptr noundef %47, i64 noundef %48)
  store i32 %49, ptr %14, align 4, !tbaa !13
  %50 = icmp slt i32 %49, 0
  br i1 %50, label %51, label %53

51:                                               ; preds = %44
  %52 = load i32, ptr %14, align 4, !tbaa !13
  store i32 %52, ptr %7, align 4
  store i32 1, ptr %16, align 4
  br label %65

53:                                               ; preds = %44
  %54 = load i32, ptr %14, align 4, !tbaa !13
  %55 = sext i32 %54 to i64
  %56 = load i64, ptr %15, align 8, !tbaa !11
  %57 = add i64 %56, %55
  store i64 %57, ptr %15, align 8, !tbaa !11
  br label %58

58:                                               ; preds = %53
  br label %59

59:                                               ; preds = %58
  br label %60

60:                                               ; preds = %59
  %61 = load ptr, ptr %8, align 8, !tbaa !3
  %62 = load ptr, ptr %9, align 8, !tbaa !9
  %63 = load i64, ptr %15, align 8, !tbaa !11
  %64 = call i32 @mbedtls_asn1_write_len_and_tag(ptr noundef %61, ptr noundef %62, i64 noundef %63, i8 noundef zeroext 48)
  store i32 %64, ptr %7, align 4
  store i32 1, ptr %16, align 4
  br label %65

65:                                               ; preds = %60, %51, %28
  call void @llvm.lifetime.end.p0(i64 8, ptr %15) #6
  call void @llvm.lifetime.end.p0(i64 4, ptr %14) #6
  %66 = load i32, ptr %7, align 4
  ret i32 %66
}