; Function Attrs: nofree norecurse nosync nounwind memory(readwrite, inaccessiblemem: none) uwtable
define hidden i32 @mbedtls_asn1_write_algorithm_identifier_ext(ptr noundef captures(none) %0, ptr noundef %1, ptr noundef readonly captures(none) %2, i64 noundef %3, i64 noundef %4, i32 noundef %5) local_unnamed_addr #6 {
  %.not = icmp eq i32 %5, 0
  br i1 %.not, label %22, label %7

7:                                                ; preds = %6
  %8 = icmp eq i64 %4, 0
  br i1 %8, label %9, label %22

9:                                                ; preds = %7
  %10 = load ptr, ptr %0, align 8, !tbaa !5
  %11 = ptrtoint ptr %10 to i64
  %12 = ptrtoint ptr %1 to i64
  %13 = sub i64 %11, %12
  %14 = icmp slt i64 %13, 1
  br i1 %14, label %mbedtls_asn1_write_len_and_tag.exit, label %.preheader.i.i.i

.preheader.i.i.i:                                 ; preds = %9
  %15 = getelementptr inbounds i8, ptr %10, i64 -1
  store ptr %15, ptr %0, align 8, !tbaa !5
  store i8 0, ptr %15, align 1, !tbaa !10
  %16 = load ptr, ptr %0, align 8, !tbaa !5
  %17 = ptrtoint ptr %16 to i64
  %18 = sub i64 %17, %12
  %19 = icmp slt i64 %18, 1
  br i1 %19, label %mbedtls_asn1_write_len_and_tag.exit, label %20

20:                                               ; preds = %.preheader.i.i.i
  %21 = getelementptr inbounds i8, ptr %16, i64 -1
  store ptr %21, ptr %0, align 8, !tbaa !5
  store i8 5, ptr %21, align 1, !tbaa !10
  br label %22

22:                                               ; preds = %7, %6, %20
  %.0 = phi i64 [ 2, %20 ], [ 0, %6 ], [ %4, %7 ]
  %23 = load ptr, ptr %0, align 8, !tbaa !5
  %24 = icmp ult ptr %23, %1
  %25 = ptrtoint ptr %23 to i64
  %26 = ptrtoint ptr %1 to i64
  %27 = sub i64 %25, %26
  %28 = icmp ult i64 %27, %3
  %or.cond.i.i = or i1 %24, %28
  br i1 %or.cond.i.i, label %mbedtls_asn1_write_len_and_tag.exit, label %mbedtls_asn1_write_raw_buffer.exit.i

mbedtls_asn1_write_raw_buffer.exit.i:             ; preds = %22
  %29 = sub i64 0, %3
  %30 = getelementptr inbounds i8, ptr %23, i64 %29
  store ptr %30, ptr %0, align 8, !tbaa !5
  tail call void @llvm.memcpy.p0.p0.i64(ptr align 1 %30, ptr readonly align 1 %2, i64 %3, i1 false)
  %31 = trunc i64 %3 to i32
  %32 = icmp slt i32 %31, 0
  br i1 %32, label %mbedtls_asn1_write_len_and_tag.exit, label %33

33:                                               ; preds = %mbedtls_asn1_write_raw_buffer.exit.i
  %34 = and i64 %3, 2147483647
  %35 = icmp samesign ugt i64 %34, 127
  br i1 %35, label %.preheader23.i.i.i, label %.loopexit.i.i.i

.preheader23.i.i.i:                               ; preds = %33, %.preheader23.i.i.i
  %.025.i.i.i = phi i64 [ %37, %.preheader23.i.i.i ], [ %34, %33 ]
  %.124.i.i.i = phi i32 [ %36, %.preheader23.i.i.i ], [ 1, %33 ]
  %36 = add nuw nsw i32 %.124.i.i.i, 1
  %37 = lshr i64 %.025.i.i.i, 8
  %.not.i.i.i = icmp samesign ult i64 %.025.i.i.i, 256
  br i1 %.not.i.i.i, label %.loopexit.i.i.i, label %.preheader23.i.i.i, !llvm.loop !3

.loopexit.i.i.i:                                  ; preds = %.preheader23.i.i.i, %33
  %.017.i.i.i = phi i32 [ 1, %33 ], [ %36, %.preheader23.i.i.i ]
  %38 = zext nneg i32 %.017.i.i.i to i64
  %39 = load ptr, ptr %0, align 8, !tbaa !5
  %40 = ptrtoint ptr %39 to i64
  %41 = sub i64 %40, %26
  %42 = icmp slt i64 %41, %38
  br i1 %42, label %mbedtls_asn1_write_len_and_tag.exit, label %.preheader.i.i.i24

.preheader.i.i.i24:                               ; preds = %.loopexit.i.i.i, %.preheader.i.i.i24
  %.018.i.i.i = phi i64 [ %46, %.preheader.i.i.i24 ], [ %34, %.loopexit.i.i.i ]
  %43 = trunc i64 %.018.i.i.i to i8
  %44 = load ptr, ptr %0, align 8, !tbaa !5
  %45 = getelementptr inbounds i8, ptr %44, i64 -1
  store ptr %45, ptr %0, align 8, !tbaa !5
  store i8 %43, ptr %45, align 1, !tbaa !10
  %46 = lshr i64 %.018.i.i.i, 8
  %.not22.i.i.i = icmp samesign ult i64 %.018.i.i.i, 256
  br i1 %.not22.i.i.i, label %47, label %.preheader.i.i.i24, !llvm.loop !11

47:                                               ; preds = %.preheader.i.i.i24
  %48 = icmp samesign ugt i32 %.017.i.i.i, 1
  br i1 %48, label %49, label %mbedtls_asn1_write_len.exit.i.i

49:                                               ; preds = %47
  %50 = trunc i32 %.017.i.i.i to i8
  %51 = add i8 %50, 127
  %52 = load ptr, ptr %0, align 8, !tbaa !5
  %53 = getelementptr inbounds i8, ptr %52, i64 -1
  store ptr %53, ptr %0, align 8, !tbaa !5
  store i8 %51, ptr %53, align 1, !tbaa !10
  br label %mbedtls_asn1_write_len.exit.i.i

mbedtls_asn1_write_len.exit.i.i:                  ; preds = %49, %47
  %54 = load ptr, ptr %0, align 8, !tbaa !5
  %55 = ptrtoint ptr %54 to i64
  %56 = sub i64 %55, %26
  %57 = icmp slt i64 %56, 1
  br i1 %57, label %mbedtls_asn1_write_len_and_tag.exit, label %mbedtls_asn1_write_oid.exit

mbedtls_asn1_write_oid.exit:                      ; preds = %mbedtls_asn1_write_len.exit.i.i
  %58 = getelementptr inbounds i8, ptr %54, i64 -1
  store ptr %58, ptr %0, align 8, !tbaa !5
  store i8 6, ptr %58, align 1, !tbaa !10
  %59 = add nuw i32 %31, 1
  %60 = add i32 %59, %.017.i.i.i
  %61 = icmp slt i32 %60, 0
  br i1 %61, label %mbedtls_asn1_write_len_and_tag.exit, label %62

62:                                               ; preds = %mbedtls_asn1_write_oid.exit
  %63 = zext nneg i32 %60 to i64
  %64 = add i64 %.0, %63
  %65 = icmp ugt i64 %64, 4294967295
  br i1 %65, label %mbedtls_asn1_write_len_and_tag.exit, label %66

66:                                               ; preds = %62
  %67 = icmp samesign ugt i64 %64, 127
  br i1 %67, label %.preheader23.i.i, label %.loopexit.i.i

.preheader23.i.i:                                 ; preds = %66, %.preheader23.i.i
  %.025.i.i = phi i64 [ %69, %.preheader23.i.i ], [ %64, %66 ]
  %.124.i.i = phi i32 [ %68, %.preheader23.i.i ], [ 1, %66 ]
  %68 = add nuw nsw i32 %.124.i.i, 1
  %69 = lshr i64 %.025.i.i, 8
  %.not.i.i = icmp ult i64 %.025.i.i, 256
  br i1 %.not.i.i, label %.loopexit.i.i, label %.preheader23.i.i, !llvm.loop !3

.loopexit.i.i:                                    ; preds = %.preheader23.i.i, %66
  %.017.i.i = phi i32 [ 1, %66 ], [ %68, %.preheader23.i.i ]
  %70 = zext nneg i32 %.017.i.i to i64
  %71 = load ptr, ptr %0, align 8, !tbaa !5
  %72 = ptrtoint ptr %71 to i64
  %73 = sub i64 %72, %26
  %74 = icmp slt i64 %73, %70
  br i1 %74, label %mbedtls_asn1_write_len_and_tag.exit, label %.preheader.i.i

.preheader.i.i:                                   ; preds = %.loopexit.i.i, %.preheader.i.i
  %.018.i.i = phi i64 [ %78, %.preheader.i.i ], [ %64, %.loopexit.i.i ]
  %75 = trunc i64 %.018.i.i to i8
  %76 = load ptr, ptr %0, align 8, !tbaa !5
  %77 = getelementptr inbounds i8, ptr %76, i64 -1
  store ptr %77, ptr %0, align 8, !tbaa !5
  store i8 %75, ptr %77, align 1, !tbaa !10
  %78 = lshr i64 %.018.i.i, 8
  %.not22.i.i = icmp ult i64 %.018.i.i, 256
  br i1 %.not22.i.i, label %79, label %.preheader.i.i, !llvm.loop !11

79:                                               ; preds = %.preheader.i.i
  %80 = icmp samesign ugt i32 %.017.i.i, 1
  br i1 %80, label %81, label %mbedtls_asn1_write_len.exit.i

81:                                               ; preds = %79
  %82 = trunc i32 %.017.i.i to i8
  %83 = add i8 %82, 127
  %84 = load ptr, ptr %0, align 8, !tbaa !5
  %85 = getelementptr inbounds i8, ptr %84, i64 -1
  store ptr %85, ptr %0, align 8, !tbaa !5
  store i8 %83, ptr %85, align 1, !tbaa !10
  br label %mbedtls_asn1_write_len.exit.i

mbedtls_asn1_write_len.exit.i:                    ; preds = %81, %79
  %86 = load ptr, ptr %0, align 8, !tbaa !5
  %87 = ptrtoint ptr %86 to i64
  %88 = sub i64 %87, %26
  %89 = icmp slt i64 %88, 1
  br i1 %89, label %mbedtls_asn1_write_len_and_tag.exit, label %90

90:                                               ; preds = %mbedtls_asn1_write_len.exit.i
  %91 = getelementptr inbounds i8, ptr %86, i64 -1
  store ptr %91, ptr %0, align 8, !tbaa !5
  store i8 48, ptr %91, align 1, !tbaa !10
  %92 = trunc nuw i64 %64 to i32
  %93 = add i32 %92, 1
  %94 = add i32 %93, %.017.i.i
  br label %mbedtls_asn1_write_len_and_tag.exit

mbedtls_asn1_write_len_and_tag.exit:              ; preds = %22, %mbedtls_asn1_write_len.exit.i.i, %.loopexit.i.i.i, %mbedtls_asn1_write_raw_buffer.exit.i, %.preheader.i.i.i, %9, %90, %mbedtls_asn1_write_len.exit.i, %.loopexit.i.i, %62, %mbedtls_asn1_write_oid.exit
  %.019 = phi i32 [ %60, %mbedtls_asn1_write_oid.exit ], [ %94, %90 ], [ -108, %.loopexit.i.i ], [ -100, %62 ], [ -108, %mbedtls_asn1_write_len.exit.i ], [ -108, %9 ], [ -108, %.preheader.i.i.i ], [ -108, %22 ], [ -108, %mbedtls_asn1_write_len.exit.i.i ], [ -108, %.loopexit.i.i.i ], [ %31, %mbedtls_asn1_write_raw_buffer.exit.i ]
  ret i32 %.019
}